(dp1
S'STKaiti'
p2
cnumpy.core.multiarray
_reconstruct
p3
(cnumpy
ndarray
p4
(I0
tS'b'
tRp5
(I1
(I2
tcnumpy
dtype
p6
(S'f8'
I0
I1
tRp7
(I3
S'<'
NNNI-1
I-1
I0
tbI00
S'\xf6\x85Y[b\xd3\xf4?\t\xad\xa3f\x11\x9f\xfe?'
tbs.